; Function Attrs: nounwind uwtable
define dso_local void @archive_entry_sparse_clear(ptr noundef captures(none) %0) local_unnamed_addr #0 {
  %2 = getelementptr inbounds nuw i8, ptr %0, i64 1136
  %3 = load ptr, ptr %2, align 8, !tbaa !4
  %.not6 = icmp eq ptr %3, null
  br i1 %.not6, label %._crit_edge, label %.lr.ph

.lr.ph:                                           ; preds = %1, %.lr.ph
  %4 = phi ptr [ %5, %.lr.ph ], [ %3, %1 ]
  %5 = load ptr, ptr %4, align 8, !tbaa !23
  tail call void @free(ptr noundef nonnull %4) #5
  store ptr %5, ptr %2, align 8, !tbaa !4
  %.not = icmp eq ptr %5, null
  br i1 %.not, label %._crit_edge, label %.lr.ph, !llvm.loop !25

._crit_edge:                                      ; preds = %.lr.ph, %1
  %6 = getelementptr inbounds nuw i8, ptr %0, i64 1144
  store ptr null, ptr %6, align 8, !tbaa !27
  ret void
}